target datalayout = "e-m:e-p270:32:32-p271:32:32-p272:64:64-i64:64-i128:128-f80:128-n8:16:32:64-S128"
target triple = "x86_64-pc-linux-gnu"

%struct._GdkRGBA = type { double, double, double, double }
%struct.darktable_t = type { %struct.dt_codepath_t, i32, i32, ptr, ptr, ptr, ptr, ptr, ptr, ptr, ptr, ptr, ptr, ptr, ptr, ptr, ptr, ptr, ptr, ptr, ptr, ptr, ptr, ptr, ptr, ptr, ptr, ptr, ptr, ptr, [64 x %struct.dt_pthread_mutex_t], %struct.dt_pthread_mutex_t, %struct.dt_pthread_mutex_t, %struct.dt_pthread_mutex_t, %struct.dt_pthread_mutex_t, %struct.dt_pthread_mutex_t, ptr, ptr, ptr, ptr, ptr, ptr, ptr, ptr, ptr, ptr, ptr, ptr, ptr, %struct.dt_lua_state_t, ptr, double, ptr, i32, [47 x i32], i32, i32, ptr, ptr, %struct.dt_sys_resources_t, %struct.dt_backthumb_t, %struct.dt_gimp_t }
%struct.dt_codepath_t = type { i8, [3 x i8] }
%struct.dt_pthread_mutex_t = type { %union.pthread_mutex_t }
%union.pthread_mutex_t = type { %struct.__pthread_mutex_s }
%struct.__pthread_mutex_s = type { i32, i32, i32, i32, i32, i16, i16, %struct.__pthread_internal_list }
%struct.__pthread_internal_list = type { ptr, ptr }
%struct.dt_lua_state_t = type { i32 }
%struct.dt_sys_resources_t = type { i64, i64, ptr, ptr, i32 }
%struct.dt_backthumb_t = type { double, double, i32, i32, i32, i32 }
%struct.dt_gimp_t = type { i32, ptr, ptr, i32, i32 }
%struct.dt_iop_module_t = type { i32, ptr, ptr, ptr, ptr, ptr, ptr, ptr, ptr, ptr, ptr, ptr, ptr, ptr, ptr, ptr, ptr, ptr, ptr, ptr, ptr, ptr, ptr, ptr, ptr, ptr, ptr, ptr, ptr, ptr, ptr, ptr, ptr, ptr, ptr, ptr, ptr, ptr, ptr, ptr, ptr, ptr, ptr, ptr, ptr, ptr, ptr, ptr, ptr, ptr, ptr, ptr, ptr, ptr, ptr, ptr, ptr, [20 x i8], i32, i32, i32, i32, i32, i32, i32, [8 x i8], [4 x float], [4 x float], [4 x float], [4 x float], [4 x float], [4 x float], ptr, %struct.dt_dev_histogram_stats_t, [4 x i32], i32, i32, ptr, i32, i32, ptr, ptr, i32, ptr, %struct.dt_pthread_mutex_t, ptr, ptr, ptr, ptr, %struct.anon, ptr, ptr, ptr, ptr, ptr, ptr, ptr, i32, ptr, ptr, ptr, ptr, ptr, ptr, ptr, i32, ptr, i32, [128 x i8], i32, ptr, ptr, i32, [12 x i8] }
%struct.dt_dev_histogram_stats_t = type { i32, i64, i32, i32 }
%struct.anon = type { %struct.anon.0, %struct.anon.1 }
%struct.anon.0 = type { ptr, ptr }
%struct.anon.1 = type { ptr, i32 }
%struct.dt_iop_gui_blend_data_t = type { i32, i32, i32, i32, i32, i32, i32, ptr, ptr, ptr, ptr, ptr, ptr, ptr, ptr, ptr, ptr, ptr, ptr, ptr, [2 x %struct.dt_iop_gui_blendif_filter_t], ptr, ptr, ptr, ptr, ptr, ptr, ptr, ptr, ptr, ptr, ptr, ptr, i32, i32, ptr, i32, [8 x [2 x i32]], i32, i32, ptr, i32, ptr, ptr, ptr, [5 x ptr], [5 x i32], ptr, ptr, ptr, i32, ptr, ptr, i32, %struct.dt_pthread_mutex_t }
%struct.dt_iop_gui_blendif_filter_t = type { ptr, ptr, [4 x ptr], ptr, ptr, ptr }
%struct.dt_gui_gtk_t = type { ptr, %struct.dt_gui_widgets_t, %struct.dt_gui_scrollbars_t, i32, ptr, i32, [39 x %struct._GdkRGBA], i32, i32, i32, i32, i32, double, double, double, double, ptr, double, double, double, double, i32, i32, [4096 x i8], i32, i32, i32, %struct.dt_pthread_mutex_t }
%struct.dt_gui_widgets_t = type { ptr, ptr, ptr, ptr, i32, i32, i32 }
%struct.dt_gui_scrollbars_t = type { ptr, ptr, i32 }

@darktable = external global %struct.darktable_t, align 8

; Function Attrs: inlinehint nounwind uwtable
define internal i32 @dt_pthread_mutex_unlock(ptr noundef %0) #3 {
  %2 = alloca ptr, align 8
  store ptr %0, ptr %2, align 8, !tbaa !138
  %3 = load ptr, ptr %2, align 8, !tbaa !138
  %4 = getelementptr inbounds nuw %struct.dt_pthread_mutex_t, ptr %3, i32 0, i32 0
  %5 = call i32 @pthread_mutex_unlock(ptr noundef %4) #11
  ret i32 %5
}

; Function Attrs: inlinehint nounwind uwtable
define internal i32 @dt_pthread_mutex_lock(ptr noundef %0) #3 {
  %2 = alloca ptr, align 8
  store ptr %0, ptr %2, align 8, !tbaa !138
  %3 = load ptr, ptr %2, align 8, !tbaa !138
  %4 = getelementptr inbounds nuw %struct.dt_pthread_mutex_t, ptr %3, i32 0, i32 0
  %5 = call i32 @pthread_mutex_lock(ptr noundef %4) #11
  ret i32 %5
}

; Function Attrs: nounwind uwtable
define void @dt_iop_gui_blending_lose_focus(ptr noundef %0) #0 {
  %2 = alloca ptr, align 8
  %3 = alloca i32, align 4
  %4 = alloca i32, align 4
  %5 = alloca ptr, align 8
  %6 = alloca i32, align 4
  store ptr %0, ptr %2, align 8, !tbaa !6
  %7 = load ptr, ptr getelementptr inbounds nuw (%struct.darktable_t, ptr @darktable, i32 0, i32 14), align 8, !tbaa !39
  %8 = getelementptr inbounds nuw %struct.dt_gui_gtk_t, ptr %7, i32 0, i32 5
  %9 = load i32, ptr %8, align 8, !tbaa !72
  %10 = icmp ne i32 %9, 0
  br i1 %10, label %11, label %12

11:                                               ; preds = %1
  br label %130

12:                                               ; preds = %1
  %13 = load ptr, ptr %2, align 8, !tbaa !6
  %14 = icmp ne ptr %13, null
  br i1 %14, label %16, label %15

15:                                               ; preds = %12
  br label %130

16:                                               ; preds = %12
  call void @llvm.lifetime.start.p0(i64 4, ptr %3) #11
  %17 = load ptr, ptr %2, align 8, !tbaa !6
  %18 = getelementptr inbounds nuw %struct.dt_iop_module_t, ptr %17, i32 0, i32 63
  %19 = load i32, ptr %18, align 16, !tbaa !158
  %20 = and i32 %19, 3
  store i32 %20, ptr %3, align 4, !tbaa !80
  call void @llvm.lifetime.start.p0(i64 4, ptr %4) #11
  %21 = load ptr, ptr %2, align 8, !tbaa !6
  %22 = getelementptr inbounds nuw %struct.dt_iop_module_t, ptr %21, i32 0, i32 64
  %23 = load i32, ptr %22, align 4, !tbaa !279
  store i32 %23, ptr %4, align 4, !tbaa !80
  %24 = load ptr, ptr %2, align 8, !tbaa !6
  %25 = getelementptr inbounds nuw %struct.dt_iop_module_t, ptr %24, i32 0, i32 8
  %26 = load ptr, ptr %25, align 16, !tbaa !243
  %27 = call i32 %26()
  %28 = and i32 %27, 2
  %29 = icmp ne i32 %28, 0
  br i1 %29, label %30, label %129

30:                                               ; preds = %16
  %31 = load ptr, ptr %2, align 8, !tbaa !6
  %32 = getelementptr inbounds nuw %struct.dt_iop_module_t, ptr %31, i32 0, i32 88
  %33 = load ptr, ptr %32, align 8, !tbaa !15
  %34 = icmp ne ptr %33, null
  br i1 %34, label %35, label %129

35:                                               ; preds = %30
  call void @llvm.lifetime.start.p0(i64 8, ptr %5) #11
  %36 = load ptr, ptr %2, align 8, !tbaa !6
  %37 = getelementptr inbounds nuw %struct.dt_iop_module_t, ptr %36, i32 0, i32 88
  %38 = load ptr, ptr %37, align 8, !tbaa !15
  store ptr %38, ptr %5, align 8, !tbaa !31
  %39 = load ptr, ptr %5, align 8, !tbaa !31
  %40 = getelementptr inbounds nuw %struct.dt_iop_gui_blend_data_t, ptr %39, i32 0, i32 21
  %41 = load ptr, ptr %40, align 8, !tbaa !248
  %42 = call i64 @gtk_toggle_button_get_type() #12
  %43 = call ptr @g_type_check_instance_cast(ptr noundef %41, i64 noundef %42)
  call void @gtk_toggle_button_set_active(ptr noundef %43, i32 noundef 0)
  %44 = load ptr, ptr %5, align 8, !tbaa !31
  %45 = getelementptr inbounds nuw %struct.dt_iop_gui_blend_data_t, ptr %44, i32 0, i32 22
  %46 = load ptr, ptr %45, align 8, !tbaa !249
  %47 = call i64 @gtk_toggle_button_get_type() #12
  %48 = call ptr @g_type_check_instance_cast(ptr noundef %46, i64 noundef %47)
  call void @gtk_toggle_button_set_active(ptr noundef %48, i32 noundef 0)
  %49 = load ptr, ptr %2, align 8, !tbaa !6
  %50 = getelementptr inbounds nuw %struct.dt_iop_module_t, ptr %49, i32 0, i32 63
  store i32 0, ptr %50, align 16, !tbaa !158
  %51 = load ptr, ptr %2, align 8, !tbaa !6
  %52 = getelementptr inbounds nuw %struct.dt_iop_module_t, ptr %51, i32 0, i32 64
  store i32 0, ptr %52, align 4, !tbaa !279
  %53 = load ptr, ptr getelementptr inbounds nuw (%struct.darktable_t, ptr @darktable, i32 0, i32 14), align 8, !tbaa !39
  %54 = getelementptr inbounds nuw %struct.dt_gui_gtk_t, ptr %53, i32 0, i32 5
  %55 = load i32, ptr %54, align 8, !tbaa !72
  %56 = add nsw i32 %55, 1
  store i32 %56, ptr %54, align 8, !tbaa !72
  %57 = load ptr, ptr %2, align 8, !tbaa !6
  %58 = getelementptr inbounds nuw %struct.dt_iop_module_t, ptr %57, i32 0, i32 95
  %59 = load ptr, ptr %58, align 8, !tbaa !277
  %60 = icmp ne ptr %59, null
  br i1 %60, label %61, label %67

61:                                               ; preds = %35
  %62 = load ptr, ptr %2, align 8, !tbaa !6
  %63 = getelementptr inbounds nuw %struct.dt_iop_module_t, ptr %62, i32 0, i32 95
  %64 = load ptr, ptr %63, align 8, !tbaa !277
  %65 = call i64 @gtk_toggle_button_get_type() #12
  %66 = call ptr @g_type_check_instance_cast(ptr noundef %64, i64 noundef %65)
  call void @gtk_toggle_button_set_active(ptr noundef %66, i32 noundef 0)
  br label %67

67:                                               ; preds = %61, %35
  %68 = load ptr, ptr getelementptr inbounds nuw (%struct.darktable_t, ptr @darktable, i32 0, i32 14), align 8, !tbaa !39
  %69 = getelementptr inbounds nuw %struct.dt_gui_gtk_t, ptr %68, i32 0, i32 5
  %70 = load i32, ptr %69, align 8, !tbaa !72
  %71 = add nsw i32 %70, -1
  store i32 %71, ptr %69, align 8, !tbaa !72
  %72 = load ptr, ptr %5, align 8, !tbaa !31
  %73 = getelementptr inbounds nuw %struct.dt_iop_gui_blend_data_t, ptr %72, i32 0, i32 3
  %74 = load i32, ptr %73, align 4, !tbaa !190
  %75 = icmp ne i32 %74, 0
  br i1 %75, label %76, label %100

76:                                               ; preds = %67
  %77 = load ptr, ptr %5, align 8, !tbaa !31
  %78 = getelementptr inbounds nuw %struct.dt_iop_gui_blend_data_t, ptr %77, i32 0, i32 47
  %79 = load ptr, ptr %78, align 8, !tbaa !200
  %80 = call i64 @gtk_toggle_button_get_type() #12
  %81 = call ptr @g_type_check_instance_cast(ptr noundef %79, i64 noundef %80)
  call void @gtk_toggle_button_set_active(ptr noundef %81, i32 noundef 0)
  %82 = load ptr, ptr %2, align 8, !tbaa !6
  call void @dt_masks_set_edit_mode(ptr noundef %82, i32 noundef 0)
  call void @llvm.lifetime.start.p0(i64 4, ptr %6) #11
  store i32 0, ptr %6, align 4, !tbaa !80
  br label %83

83:                                               ; preds = %96, %76
  %84 = load i32, ptr %6, align 4, !tbaa !80
  %85 = icmp slt i32 %84, 5
  br i1 %85, label %87, label %86

86:                                               ; preds = %83
  call void @llvm.lifetime.end.p0(i64 4, ptr %6) #11
  br label %99

87:                                               ; preds = %83
  %88 = load ptr, ptr %5, align 8, !tbaa !31
  %89 = getelementptr inbounds nuw %struct.dt_iop_gui_blend_data_t, ptr %88, i32 0, i32 45
  %90 = load i32, ptr %6, align 4, !tbaa !80
  %91 = sext i32 %90 to i64
  %92 = getelementptr inbounds [5 x ptr], ptr %89, i64 0, i64 %91
  %93 = load ptr, ptr %92, align 8, !tbaa !11
  %94 = call i64 @gtk_toggle_button_get_type() #12
  %95 = call ptr @g_type_check_instance_cast(ptr noundef %93, i64 noundef %94)
  call void @gtk_toggle_button_set_active(ptr noundef %95, i32 noundef 0)
  br label %96

96:                                               ; preds = %87
  %97 = load i32, ptr %6, align 4, !tbaa !80
  %98 = add nsw i32 %97, 1
  store i32 %98, ptr %6, align 4, !tbaa !80
  br label %83

99:                                               ; preds = %86
  br label %100

100:                                              ; preds = %99, %67
  %101 = load ptr, ptr %5, align 8, !tbaa !31
  %102 = getelementptr inbounds nuw %struct.dt_iop_gui_blend_data_t, ptr %101, i32 0, i32 54
  %103 = call i32 @dt_pthread_mutex_lock(ptr noundef %102)
  %104 = load ptr, ptr %5, align 8, !tbaa !31
  %105 = getelementptr inbounds nuw %struct.dt_iop_gui_blend_data_t, ptr %104, i32 0, i32 38
  store i32 0, ptr %105, align 4, !tbaa !159
  %106 = load ptr, ptr %5, align 8, !tbaa !31
  %107 = getelementptr inbounds nuw %struct.dt_iop_gui_blend_data_t, ptr %106, i32 0, i32 39
  %108 = load i32, ptr %107, align 8, !tbaa !157
  %109 = icmp ne i32 %108, 0
  br i1 %109, label %110, label %117

110:                                              ; preds = %100
  %111 = load ptr, ptr %5, align 8, !tbaa !31
  %112 = getelementptr inbounds nuw %struct.dt_iop_gui_blend_data_t, ptr %111, i32 0, i32 39
  %113 = load i32, ptr %112, align 8, !tbaa !157
  %114 = call i32 @g_source_remove(i32 noundef %113)
  %115 = load ptr, ptr %5, align 8, !tbaa !31
  %116 = getelementptr inbounds nuw %struct.dt_iop_gui_blend_data_t, ptr %115, i32 0, i32 39
  store i32 0, ptr %116, align 8, !tbaa !157
  br label %117

117:                                              ; preds = %110, %100
  %118 = load ptr, ptr %5, align 8, !tbaa !31
  %119 = getelementptr inbounds nuw %struct.dt_iop_gui_blend_data_t, ptr %118, i32 0, i32 54
  %120 = call i32 @dt_pthread_mutex_unlock(ptr noundef %119)
  %121 = load i32, ptr %3, align 4, !tbaa !80
  %122 = icmp ne i32 %121, 0
  br i1 %122, label %126, label %123

123:                                              ; preds = %117
  %124 = load i32, ptr %4, align 4, !tbaa !80
  %125 = icmp ne i32 %124, 0
  br i1 %125, label %126, label %128

126:                                              ; preds = %123, %117
  %127 = load ptr, ptr %2, align 8, !tbaa !6
  call void @dt_iop_refresh_center(ptr noundef %127)
  br label %128

128:                                              ; preds = %126, %123
  call void @llvm.lifetime.end.p0(i64 8, ptr %5) #11
  br label %129

129:                                              ; preds = %128, %30, %16
  call void @llvm.lifetime.end.p0(i64 4, ptr %4) #11
  call void @llvm.lifetime.end.p0(i64 4, ptr %3) #11
  br label %130

130:                                              ; preds = %129, %15, %11
  ret void
}