; Function Attrs: nounwind uwtable
define void @dt_iop_gui_blending_lose_focus(ptr noundef %0) local_unnamed_addr #0 {
  %2 = load ptr, ptr getelementptr inbounds nuw (i8, ptr @darktable, i64 104), align 8, !tbaa !33
  %3 = getelementptr inbounds nuw i8, ptr %2, i64 96
  %4 = load i32, ptr %3, align 8, !tbaa !66
  %5 = icmp eq i32 %4, 0
  %6 = icmp ne ptr %0, null
  %or.cond3 = and i1 %6, %5
  br i1 %or.cond3, label %7, label %64

7:                                                ; preds = %1
  %8 = getelementptr inbounds nuw i8, ptr %0, i64 496
  %9 = load i32, ptr %8, align 16, !tbaa !144
  %10 = and i32 %9, 3
  %11 = getelementptr inbounds nuw i8, ptr %0, i64 500
  %12 = load i32, ptr %11, align 4, !tbaa !248
  %13 = getelementptr inbounds nuw i8, ptr %0, i64 64
  %14 = load ptr, ptr %13, align 16, !tbaa !211
  %15 = tail call i32 %14() #18
  %16 = and i32 %15, 2
  %.not = icmp eq i32 %16, 0
  br i1 %.not, label %64, label %17

17:                                               ; preds = %7
  %18 = getelementptr inbounds nuw i8, ptr %0, i64 776
  %19 = load ptr, ptr %18, align 8, !tbaa !6
  %.not34 = icmp eq ptr %19, null
  br i1 %.not34, label %64, label %20

20:                                               ; preds = %17
  %21 = getelementptr inbounds nuw i8, ptr %19, i64 280
  %22 = load ptr, ptr %21, align 8, !tbaa !216
  %23 = tail call i64 @gtk_toggle_button_get_type() #19
  %24 = tail call ptr @g_type_check_instance_cast(ptr noundef %22, i64 noundef %23) #18
  tail call void @gtk_toggle_button_set_active(ptr noundef %24, i32 noundef 0) #18
  %25 = getelementptr inbounds nuw i8, ptr %19, i64 288
  %26 = load ptr, ptr %25, align 8, !tbaa !217
  %27 = tail call ptr @g_type_check_instance_cast(ptr noundef %26, i64 noundef %23) #18
  tail call void @gtk_toggle_button_set_active(ptr noundef %27, i32 noundef 0) #18
  store i32 0, ptr %8, align 16, !tbaa !144
  store i32 0, ptr %11, align 4, !tbaa !248
  %28 = load ptr, ptr getelementptr inbounds nuw (i8, ptr @darktable, i64 104), align 8, !tbaa !33
  %29 = getelementptr inbounds nuw i8, ptr %28, i64 96
  %30 = load i32, ptr %29, align 8, !tbaa !66
  %31 = add nsw i32 %30, 1
  store i32 %31, ptr %29, align 8, !tbaa !66
  %32 = getelementptr inbounds nuw i8, ptr %0, i64 856
  %33 = load ptr, ptr %32, align 8, !tbaa !246
  %.not35 = icmp eq ptr %33, null
  br i1 %.not35, label %37, label %34

34:                                               ; preds = %20
  %35 = tail call ptr @g_type_check_instance_cast(ptr noundef nonnull %33, i64 noundef %23) #18
  tail call void @gtk_toggle_button_set_active(ptr noundef %35, i32 noundef 0) #18
  %.pre = load ptr, ptr getelementptr inbounds nuw (i8, ptr @darktable, i64 104), align 8, !tbaa !33
  %.phi.trans.insert = getelementptr inbounds nuw i8, ptr %.pre, i64 96
  %.pre40 = load i32, ptr %.phi.trans.insert, align 8, !tbaa !66
  %36 = add nsw i32 %.pre40, -1
  br label %37

37:                                               ; preds = %34, %20
  %38 = phi i32 [ %36, %34 ], [ %30, %20 ]
  %39 = phi ptr [ %.pre, %34 ], [ %28, %20 ]
  %40 = getelementptr inbounds nuw i8, ptr %39, i64 96
  store i32 %38, ptr %40, align 8, !tbaa !66
  %41 = getelementptr inbounds nuw i8, ptr %19, i64 12
  %42 = load i32, ptr %41, align 4, !tbaa !162
  %.not36 = icmp eq i32 %42, 0
  br i1 %.not36, label %.loopexit, label %43

43:                                               ; preds = %37
  %44 = getelementptr inbounds nuw i8, ptr %19, i64 576
  %45 = load ptr, ptr %44, align 8, !tbaa !171
  %46 = tail call ptr @g_type_check_instance_cast(ptr noundef %45, i64 noundef %23) #18
  tail call void @gtk_toggle_button_set_active(ptr noundef %46, i32 noundef 0) #18
  tail call void @dt_masks_set_edit_mode(ptr noundef nonnull %0, i32 noundef 0) #18
  %47 = getelementptr inbounds nuw i8, ptr %19, i64 512
  br label %48

48:                                               ; preds = %43, %48
  %indvars.iv = phi i64 [ 0, %43 ], [ %indvars.iv.next, %48 ]
  %49 = getelementptr inbounds nuw [5 x ptr], ptr %47, i64 0, i64 %indvars.iv
  %50 = load ptr, ptr %49, align 8, !tbaa !179
  %51 = tail call ptr @g_type_check_instance_cast(ptr noundef %50, i64 noundef %23) #18
  tail call void @gtk_toggle_button_set_active(ptr noundef %51, i32 noundef 0) #18
  %indvars.iv.next = add nuw nsw i64 %indvars.iv, 1
  %exitcond.not = icmp eq i64 %indvars.iv.next, 5
  br i1 %exitcond.not, label %.loopexit, label %48

.loopexit:                                        ; preds = %48, %37
  %52 = getelementptr inbounds nuw i8, ptr %19, i64 632
  %53 = tail call i32 @pthread_mutex_lock(ptr noundef nonnull %52) #18
  %54 = getelementptr inbounds nuw i8, ptr %19, i64 460
  store i32 0, ptr %54, align 4, !tbaa !145
  %55 = getelementptr inbounds nuw i8, ptr %19, i64 464
  %56 = load i32, ptr %55, align 8, !tbaa !143
  %.not37 = icmp eq i32 %56, 0
  br i1 %.not37, label %59, label %57

57:                                               ; preds = %.loopexit
  %58 = tail call i32 @g_source_remove(i32 noundef %56) #18
  store i32 0, ptr %55, align 8, !tbaa !143
  br label %59

59:                                               ; preds = %57, %.loopexit
  %60 = tail call i32 @pthread_mutex_unlock(ptr noundef nonnull %52) #18
  %61 = icmp ne i32 %10, 0
  %62 = icmp ne i32 %12, 0
  %or.cond = select i1 %61, i1 true, i1 %62
  br i1 %or.cond, label %63, label %64

63:                                               ; preds = %59
  tail call void @dt_iop_refresh_center(ptr noundef nonnull %0) #18
  br label %64

64:                                               ; preds = %7, %17, %59, %63, %1
  ret void
}